target datalayout = "e-m:e-p270:32:32-p271:32:32-p272:64:64-i64:64-i128:128-f80:128-n8:16:32:64-S128"
target triple = "x86_64-unknown-linux-gnu"

%"struct.std::thread::_State" = type { ptr }
%"struct.std::thread::_State_impl.42" = type <{ %"struct.std::thread::_State", %"struct.std::thread::_Invoker.43", [7 x i8] }>
%"struct.std::thread::_Invoker.43" = type { %"class.std::tuple.44" }
%"class.std::tuple.44" = type { i8 }

; Function Attrs: mustprogress uwtable
define linkonce_odr dso_local noundef ptr @_ZN4absl24synchronization_internal32GetOrCreateCurrentThreadIdentityEv() #4 comdat {
entry:
  %retval = alloca ptr, align 8
  %identity = alloca ptr, align 8
  %call = call noundef ptr @_ZN4absl13base_internal30CurrentThreadIdentityIfPresentEv()
  store ptr %call, ptr %identity, align 8
  %0 = load ptr, ptr %identity, align 8
  %cmp = icmp eq ptr %0, null
  br i1 %cmp, label %if.then, label %if.end

if.then:                                          ; preds = %entry
  %call1 = call noundef ptr @_ZN4absl24synchronization_internal20CreateThreadIdentityEv()
  store ptr %call1, ptr %retval, align 8
  br label %return

if.end:                                           ; preds = %entry
  %1 = load ptr, ptr %identity, align 8
  store ptr %1, ptr %retval, align 8
  br label %return

return:                                           ; preds = %if.end, %if.then
  %2 = load ptr, ptr %retval, align 8
  ret ptr %2
}

; Function Attrs: mustprogress nounwind uwtable
define internal noundef nonnull align 1 dereferenceable(1) ptr @"_ZNSt10_Head_baseILm0EZN4absl24synchronization_internal12_GLOBAL__N_141PerThreadSemTest_ThreadIdentityReuse_Test8TestBodyEvE3$_0Lb1EE7_M_headERS5_"(ptr noundef nonnull align 1 dereferenceable(1) %__b) #5 align 2 {
entry:
  %__b.addr = alloca ptr, align 8
  store ptr %__b, ptr %__b.addr, align 8
  %0 = load ptr, ptr %__b.addr, align 8
  ret ptr %0
}

; Function Attrs: mustprogress uwtable
define internal void @"_ZZN4absl24synchronization_internal12_GLOBAL__N_141PerThreadSemTest_ThreadIdentityReuse_Test8TestBodyEvENK3$_0clEv"(ptr noundef nonnull align 1 dereferenceable(1) %this) #4 align 2 {
entry:
  %this.addr = alloca ptr, align 8
  store ptr %this, ptr %this.addr, align 8
  %call = call noundef ptr @_ZN4absl24synchronization_internal32GetOrCreateCurrentThreadIdentityEv()
  ret void
}

; Function Attrs: mustprogress nounwind uwtable
define internal noundef nonnull align 1 dereferenceable(1) ptr @"_ZNSt11_Tuple_implILm0EJZN4absl24synchronization_internal12_GLOBAL__N_141PerThreadSemTest_ThreadIdentityReuse_Test8TestBodyEvE3$_0EE7_M_headERS5_"(ptr noundef nonnull align 1 dereferenceable(1) %__t) #5 align 2 {
entry:
  %__t.addr = alloca ptr, align 8
  store ptr %__t, ptr %__t.addr, align 8
  %0 = load ptr, ptr %__t.addr, align 8
  %call = call noundef nonnull align 1 dereferenceable(1) ptr @"_ZNSt10_Head_baseILm0EZN4absl24synchronization_internal12_GLOBAL__N_141PerThreadSemTest_ThreadIdentityReuse_Test8TestBodyEvE3$_0Lb1EE7_M_headERS5_"(ptr noundef nonnull align 1 dereferenceable(1) %0) #3
  ret ptr %call
}

; Function Attrs: mustprogress uwtable
define internal void @"_ZSt13__invoke_implIvZN4absl24synchronization_internal12_GLOBAL__N_141PerThreadSemTest_ThreadIdentityReuse_Test8TestBodyEvE3$_0JEET_St14__invoke_otherOT0_DpOT1_"(ptr noundef nonnull align 1 dereferenceable(1) %__f) #4 {
entry:
  %__f.addr = alloca ptr, align 8
  store ptr %__f, ptr %__f.addr, align 8
  %0 = load ptr, ptr %__f.addr, align 8
  call void @"_ZZN4absl24synchronization_internal12_GLOBAL__N_141PerThreadSemTest_ThreadIdentityReuse_Test8TestBodyEvENK3$_0clEv"(ptr noundef nonnull align 1 dereferenceable(1) %0)
  ret void
}

; Function Attrs: mustprogress nounwind uwtable
define internal noundef nonnull align 1 dereferenceable(1) ptr @"_ZSt12__get_helperILm0EZN4absl24synchronization_internal12_GLOBAL__N_141PerThreadSemTest_ThreadIdentityReuse_Test8TestBodyEvE3$_0JEERT0_RSt11_Tuple_implIXT_EJS5_DpT1_EE"(ptr noundef nonnull align 1 dereferenceable(1) %__t) #5 {
entry:
  %__t.addr = alloca ptr, align 8
  store ptr %__t, ptr %__t.addr, align 8
  %0 = load ptr, ptr %__t.addr, align 8
  %call = call noundef nonnull align 1 dereferenceable(1) ptr @"_ZNSt11_Tuple_implILm0EJZN4absl24synchronization_internal12_GLOBAL__N_141PerThreadSemTest_ThreadIdentityReuse_Test8TestBodyEvE3$_0EE7_M_headERS5_"(ptr noundef nonnull align 1 dereferenceable(1) %0) #3
  ret ptr %call
}

; Function Attrs: mustprogress uwtable
define internal void @"_ZSt8__invokeIZN4absl24synchronization_internal12_GLOBAL__N_141PerThreadSemTest_ThreadIdentityReuse_Test8TestBodyEvE3$_0JEENSt15__invoke_resultIT_JDpT0_EE4typeEOS6_DpOS7_"(ptr noundef nonnull align 1 dereferenceable(1) %__fn) #4 {
entry:
  %__fn.addr = alloca ptr, align 8
  store ptr %__fn, ptr %__fn.addr, align 8
  %0 = load ptr, ptr %__fn.addr, align 8
  call void @"_ZSt13__invoke_implIvZN4absl24synchronization_internal12_GLOBAL__N_141PerThreadSemTest_ThreadIdentityReuse_Test8TestBodyEvE3$_0JEET_St14__invoke_otherOT0_DpOT1_"(ptr noundef nonnull align 1 dereferenceable(1) %0)
  ret void
}

; Function Attrs: mustprogress nounwind uwtable
define internal noundef nonnull align 1 dereferenceable(1) ptr @"_ZSt3getILm0EJZN4absl24synchronization_internal12_GLOBAL__N_141PerThreadSemTest_ThreadIdentityReuse_Test8TestBodyEvE3$_0EEONSt13tuple_elementIXT_ESt5tupleIJDpT0_EEE4typeEOS9_"(ptr noundef nonnull align 1 dereferenceable(1) %__t) #5 {
entry:
  %__t.addr = alloca ptr, align 8
  store ptr %__t, ptr %__t.addr, align 8
  %0 = load ptr, ptr %__t.addr, align 8
  %call = call noundef nonnull align 1 dereferenceable(1) ptr @"_ZSt12__get_helperILm0EZN4absl24synchronization_internal12_GLOBAL__N_141PerThreadSemTest_ThreadIdentityReuse_Test8TestBodyEvE3$_0JEERT0_RSt11_Tuple_implIXT_EJS5_DpT1_EE"(ptr noundef nonnull align 1 dereferenceable(1) %0) #3
  ret ptr %call
}

; Function Attrs: mustprogress uwtable
define internal void @"_ZNSt6thread8_InvokerISt5tupleIJZN4absl24synchronization_internal12_GLOBAL__N_141PerThreadSemTest_ThreadIdentityReuse_Test8TestBodyEvE3$_0EEE9_M_invokeIJLm0EEEEvSt12_Index_tupleIJXspT_EEE"(ptr noundef nonnull align 1 dereferenceable(1) %this) #4 align 2 {
entry:
  %this.addr = alloca ptr, align 8
  store ptr %this, ptr %this.addr, align 8
  %this1 = load ptr, ptr %this.addr, align 8
  %_M_t = getelementptr inbounds %"struct.std::thread::_Invoker.43", ptr %this1, i32 0, i32 0
  %call = call noundef nonnull align 1 dereferenceable(1) ptr @"_ZSt3getILm0EJZN4absl24synchronization_internal12_GLOBAL__N_141PerThreadSemTest_ThreadIdentityReuse_Test8TestBodyEvE3$_0EEONSt13tuple_elementIXT_ESt5tupleIJDpT0_EEE4typeEOS9_"(ptr noundef nonnull align 1 dereferenceable(1) %_M_t) #3
  call void @"_ZSt8__invokeIZN4absl24synchronization_internal12_GLOBAL__N_141PerThreadSemTest_ThreadIdentityReuse_Test8TestBodyEvE3$_0JEENSt15__invoke_resultIT_JDpT0_EE4typeEOS6_DpOS7_"(ptr noundef nonnull align 1 dereferenceable(1) %call)
  ret void
}

; Function Attrs: mustprogress uwtable
define internal void @"_ZNSt6thread8_InvokerISt5tupleIJZN4absl24synchronization_internal12_GLOBAL__N_141PerThreadSemTest_ThreadIdentityReuse_Test8TestBodyEvE3$_0EEEclEv"(ptr noundef nonnull align 1 dereferenceable(1) %this) #4 align 2 {
entry:
  %this.addr = alloca ptr, align 8
  store ptr %this, ptr %this.addr, align 8
  %this1 = load ptr, ptr %this.addr, align 8
  call void @"_ZNSt6thread8_InvokerISt5tupleIJZN4absl24synchronization_internal12_GLOBAL__N_141PerThreadSemTest_ThreadIdentityReuse_Test8TestBodyEvE3$_0EEE9_M_invokeIJLm0EEEEvSt12_Index_tupleIJXspT_EEE"(ptr noundef nonnull align 1 dereferenceable(1) %this1)
  ret void
}

; Function Attrs: mustprogress uwtable
define internal void @"_ZNSt6thread11_State_implINS_8_InvokerISt5tupleIJZN4absl24synchronization_internal12_GLOBAL__N_141PerThreadSemTest_ThreadIdentityReuse_Test8TestBodyEvE3$_0EEEEE6_M_runEv"(ptr noundef nonnull align 8 dereferenceable(9) %this) unnamed_addr #4 align 2 {
entry:
  %this.addr = alloca ptr, align 8
  store ptr %this, ptr %this.addr, align 8
  %this1 = load ptr, ptr %this.addr, align 8
  %_M_func = getelementptr inbounds %"struct.std::thread::_State_impl.42", ptr %this1, i32 0, i32 1
  call void @"_ZNSt6thread8_InvokerISt5tupleIJZN4absl24synchronization_internal12_GLOBAL__N_141PerThreadSemTest_ThreadIdentityReuse_Test8TestBodyEvE3$_0EEEclEv"(ptr noundef nonnull align 1 dereferenceable(1) %_M_func)
  ret void
}