; Function Attrs: mustprogress uwtable
define internal void @"_ZNSt6thread11_State_implINS_8_InvokerISt5tupleIJZN4absl24synchronization_internal12_GLOBAL__N_141PerThreadSemTest_ThreadIdentityReuse_Test8TestBodyEvE3$_0EEEEE6_M_runEv"(ptr nocapture nonnull readnone align 8 %this) unnamed_addr #3 align 2 {
entry:
  %call.i.i.i.i.i.i = tail call noundef ptr @_ZN4absl13base_internal30CurrentThreadIdentityIfPresentEv()
  %cmp.i.i.i.i.i.i = icmp eq ptr %call.i.i.i.i.i.i, null
  br i1 %cmp.i.i.i.i.i.i, label %if.then.i.i.i.i.i.i, label %"_ZNSt6thread8_InvokerISt5tupleIJZN4absl24synchronization_internal12_GLOBAL__N_141PerThreadSemTest_ThreadIdentityReuse_Test8TestBodyEvE3$_0EEEclEv.exit"

if.then.i.i.i.i.i.i:                              ; preds = %entry
  %call1.i.i.i.i.i.i = tail call noundef ptr @_ZN4absl24synchronization_internal20CreateThreadIdentityEv()
  br label %"_ZNSt6thread8_InvokerISt5tupleIJZN4absl24synchronization_internal12_GLOBAL__N_141PerThreadSemTest_ThreadIdentityReuse_Test8TestBodyEvE3$_0EEEclEv.exit"

"_ZNSt6thread8_InvokerISt5tupleIJZN4absl24synchronization_internal12_GLOBAL__N_141PerThreadSemTest_ThreadIdentityReuse_Test8TestBodyEvE3$_0EEEclEv.exit": ; preds = %entry, %if.then.i.i.i.i.i.i
  ret void
}